target datalayout = "e-m:e-p270:32:32-p271:32:32-p272:64:64-i64:64-i128:128-f80:128-n8:16:32:64-S128"
target triple = "x86_64-pc-linux-gnu"

%struct.H5FD_multi_fapl_t = type { [7 x i32], [7 x i64], [7 x ptr], [7 x i64], i8 }

@.str.1 = private unnamed_addr constant [103 x i8] c"generated/home/dtcxzyw/WorkSpace/Projects/compilers/llvm-opt-benchmark/bench/hdf5/hdf5/src/H5FDmulti.c\00", align 1
@H5_libinit_g = external global i8, align 1
@H5_libterm_g = external global i8, align 1
@H5E_ERR_CLS_g = external global i64, align 8
@H5E_INTERNAL_g = external global i64, align 8
@H5E_BADVALUE_g = external global i64, align 8
@__func__.H5FD_multi_fapl_copy = private unnamed_addr constant [21 x i8] c"H5FD_multi_fapl_copy\00", align 1
@.str.25 = private unnamed_addr constant [30 x i8] c"can't release object on error\00", align 1

; Function Attrs: nounwind uwtable
define internal ptr @H5FD_multi_fapl_copy(ptr noundef %0) #0 {
  %2 = alloca ptr, align 8
  %3 = alloca ptr, align 8
  %4 = alloca ptr, align 8
  %5 = alloca ptr, align 8
  %6 = alloca i32, align 4
  %7 = alloca i32, align 4
  %8 = alloca i32, align 4
  %9 = alloca i32, align 4
  store ptr %0, ptr %3, align 8, !tbaa !40
  call void @llvm.lifetime.start.p0(i64 8, ptr %4) #9
  %10 = load ptr, ptr %3, align 8, !tbaa !40
  store ptr %10, ptr %4, align 8, !tbaa !41
  call void @llvm.lifetime.start.p0(i64 8, ptr %5) #9
  %11 = call noalias ptr @calloc(i64 noundef 1, i64 noundef 208) #11
  store ptr %11, ptr %5, align 8, !tbaa !41
  call void @llvm.lifetime.start.p0(i64 4, ptr %6) #9
  store i32 0, ptr %6, align 4, !tbaa !10
  %12 = call i32 @H5Eclear2(i64 noundef 0)
  %13 = load ptr, ptr %5, align 8, !tbaa !41
  %14 = load ptr, ptr %4, align 8, !tbaa !41
  call void @llvm.memcpy.p0.p0.i64(ptr align 8 %13, ptr align 8 %14, i64 208, i1 false)
  call void @llvm.lifetime.start.p0(i64 4, ptr %7) #9
  store i32 0, ptr %7, align 4, !tbaa !10
  br label %15

15:                                               ; preds = %83, %1
  %16 = load i32, ptr %7, align 4, !tbaa !10
  %17 = icmp slt i32 %16, 7
  br i1 %17, label %18, label %86

18:                                               ; preds = %15
  %19 = load ptr, ptr %4, align 8, !tbaa !41
  %20 = getelementptr inbounds nuw %struct.H5FD_multi_fapl_t, ptr %19, i32 0, i32 1
  %21 = load i32, ptr %7, align 4, !tbaa !10
  %22 = sext i32 %21 to i64
  %23 = getelementptr inbounds [7 x i64], ptr %20, i64 0, i64 %22
  %24 = load i64, ptr %23, align 8, !tbaa !12
  %25 = icmp sge i64 %24, 0
  br i1 %25, label %26, label %50

26:                                               ; preds = %18
  %27 = load ptr, ptr %4, align 8, !tbaa !41
  %28 = getelementptr inbounds nuw %struct.H5FD_multi_fapl_t, ptr %27, i32 0, i32 1
  %29 = load i32, ptr %7, align 4, !tbaa !10
  %30 = sext i32 %29 to i64
  %31 = getelementptr inbounds [7 x i64], ptr %28, i64 0, i64 %30
  %32 = load i64, ptr %31, align 8, !tbaa !12
  %33 = call i32 @H5Iinc_ref(i64 noundef %32)
  %34 = icmp slt i32 %33, 0
  br i1 %34, label %35, label %38

35:                                               ; preds = %26
  %36 = load i32, ptr %6, align 4, !tbaa !10
  %37 = add nsw i32 %36, 1
  store i32 %37, ptr %6, align 4, !tbaa !10
  br label %86

38:                                               ; preds = %26
  %39 = load ptr, ptr %4, align 8, !tbaa !41
  %40 = getelementptr inbounds nuw %struct.H5FD_multi_fapl_t, ptr %39, i32 0, i32 1
  %41 = load i32, ptr %7, align 4, !tbaa !10
  %42 = sext i32 %41 to i64
  %43 = getelementptr inbounds [7 x i64], ptr %40, i64 0, i64 %42
  %44 = load i64, ptr %43, align 8, !tbaa !12
  %45 = load ptr, ptr %5, align 8, !tbaa !41
  %46 = getelementptr inbounds nuw %struct.H5FD_multi_fapl_t, ptr %45, i32 0, i32 1
  %47 = load i32, ptr %7, align 4, !tbaa !10
  %48 = sext i32 %47 to i64
  %49 = getelementptr inbounds [7 x i64], ptr %46, i64 0, i64 %48
  store i64 %44, ptr %49, align 8, !tbaa !12
  br label %50

50:                                               ; preds = %38, %18
  %51 = load ptr, ptr %4, align 8, !tbaa !41
  %52 = getelementptr inbounds nuw %struct.H5FD_multi_fapl_t, ptr %51, i32 0, i32 2
  %53 = load i32, ptr %7, align 4, !tbaa !10
  %54 = sext i32 %53 to i64
  %55 = getelementptr inbounds [7 x ptr], ptr %52, i64 0, i64 %54
  %56 = load ptr, ptr %55, align 8, !tbaa !16
  %57 = icmp ne ptr %56, null
  br i1 %57, label %58, label %82

58:                                               ; preds = %50
  %59 = load ptr, ptr %4, align 8, !tbaa !41
  %60 = getelementptr inbounds nuw %struct.H5FD_multi_fapl_t, ptr %59, i32 0, i32 2
  %61 = load i32, ptr %7, align 4, !tbaa !10
  %62 = sext i32 %61 to i64
  %63 = getelementptr inbounds [7 x ptr], ptr %60, i64 0, i64 %62
  %64 = load ptr, ptr %63, align 8, !tbaa !16
  %65 = call noalias ptr @strdup(ptr noundef %64) #9
  %66 = load ptr, ptr %5, align 8, !tbaa !41
  %67 = getelementptr inbounds nuw %struct.H5FD_multi_fapl_t, ptr %66, i32 0, i32 2
  %68 = load i32, ptr %7, align 4, !tbaa !10
  %69 = sext i32 %68 to i64
  %70 = getelementptr inbounds [7 x ptr], ptr %67, i64 0, i64 %69
  store ptr %65, ptr %70, align 8, !tbaa !16
  %71 = load ptr, ptr %5, align 8, !tbaa !41
  %72 = getelementptr inbounds nuw %struct.H5FD_multi_fapl_t, ptr %71, i32 0, i32 2
  %73 = load i32, ptr %7, align 4, !tbaa !10
  %74 = sext i32 %73 to i64
  %75 = getelementptr inbounds [7 x ptr], ptr %72, i64 0, i64 %74
  %76 = load ptr, ptr %75, align 8, !tbaa !16
  %77 = icmp eq ptr null, %76
  br i1 %77, label %78, label %81

78:                                               ; preds = %58
  %79 = load i32, ptr %6, align 4, !tbaa !10
  %80 = add nsw i32 %79, 1
  store i32 %80, ptr %6, align 4, !tbaa !10
  br label %86

81:                                               ; preds = %58
  br label %82

82:                                               ; preds = %81, %50
  br label %83

83:                                               ; preds = %82
  %84 = load i32, ptr %7, align 4, !tbaa !10
  %85 = add nsw i32 %84, 1
  store i32 %85, ptr %7, align 4, !tbaa !10
  br label %15, !llvm.loop !43

86:                                               ; preds = %78, %35, %15
  call void @llvm.lifetime.end.p0(i64 4, ptr %7) #9
  %87 = load i32, ptr %6, align 4, !tbaa !10
  %88 = icmp ne i32 %87, 0
  br i1 %88, label %89, label %191

89:                                               ; preds = %86
  call void @llvm.lifetime.start.p0(i64 4, ptr %8) #9
  store i32 0, ptr %8, align 4, !tbaa !10
  br label %90

90:                                               ; preds = %125, %89
  %91 = load i32, ptr %8, align 4, !tbaa !10
  %92 = icmp slt i32 %91, 7
  br i1 %92, label %93, label %128

93:                                               ; preds = %90
  %94 = load ptr, ptr %5, align 8, !tbaa !41
  %95 = getelementptr inbounds nuw %struct.H5FD_multi_fapl_t, ptr %94, i32 0, i32 1
  %96 = load i32, ptr %8, align 4, !tbaa !10
  %97 = sext i32 %96 to i64
  %98 = getelementptr inbounds [7 x i64], ptr %95, i64 0, i64 %97
  %99 = load i64, ptr %98, align 8, !tbaa !12
  %100 = icmp sge i64 %99, 0
  br i1 %100, label %101, label %109

101:                                              ; preds = %93
  %102 = load ptr, ptr %5, align 8, !tbaa !41
  %103 = getelementptr inbounds nuw %struct.H5FD_multi_fapl_t, ptr %102, i32 0, i32 1
  %104 = load i32, ptr %8, align 4, !tbaa !10
  %105 = sext i32 %104 to i64
  %106 = getelementptr inbounds [7 x i64], ptr %103, i64 0, i64 %105
  %107 = load i64, ptr %106, align 8, !tbaa !12
  %108 = call i32 @H5Idec_ref(i64 noundef %107)
  br label %109

109:                                              ; preds = %101, %93
  %110 = load ptr, ptr %5, align 8, !tbaa !41
  %111 = getelementptr inbounds nuw %struct.H5FD_multi_fapl_t, ptr %110, i32 0, i32 2
  %112 = load i32, ptr %8, align 4, !tbaa !10
  %113 = sext i32 %112 to i64
  %114 = getelementptr inbounds [7 x ptr], ptr %111, i64 0, i64 %113
  %115 = load ptr, ptr %114, align 8, !tbaa !16
  %116 = icmp ne ptr %115, null
  br i1 %116, label %117, label %124

117:                                              ; preds = %109
  %118 = load ptr, ptr %5, align 8, !tbaa !41
  %119 = getelementptr inbounds nuw %struct.H5FD_multi_fapl_t, ptr %118, i32 0, i32 2
  %120 = load i32, ptr %8, align 4, !tbaa !10
  %121 = sext i32 %120 to i64
  %122 = getelementptr inbounds [7 x ptr], ptr %119, i64 0, i64 %121
  %123 = load ptr, ptr %122, align 8, !tbaa !16
  call void @free(ptr noundef %123) #9
  br label %124

124:                                              ; preds = %117, %109
  br label %125

125:                                              ; preds = %124
  %126 = load i32, ptr %8, align 4, !tbaa !10
  %127 = add nsw i32 %126, 1
  store i32 %127, ptr %8, align 4, !tbaa !10
  br label %90, !llvm.loop !44

128:                                              ; preds = %90
  call void @llvm.lifetime.end.p0(i64 4, ptr %8) #9
  %129 = load ptr, ptr %5, align 8, !tbaa !41
  call void @free(ptr noundef %129) #9
  br label %130

130:                                              ; preds = %128
  %131 = load i8, ptr @H5_libinit_g, align 1, !tbaa !22, !range !24, !noundef !25
  %132 = trunc i8 %131 to i1
  br i1 %132, label %137, label %133

133:                                              ; preds = %130
  %134 = load i8, ptr @H5_libterm_g, align 1, !tbaa !22, !range !24, !noundef !25
  %135 = trunc i8 %134 to i1
  %136 = xor i1 %135, true
  br label %137

137:                                              ; preds = %133, %130
  %138 = phi i1 [ false, %130 ], [ %136, %133 ]
  %139 = xor i1 %138, true
  %140 = xor i1 %139, true
  %141 = zext i1 %140 to i32
  %142 = sext i32 %141 to i64
  %143 = call i64 @llvm.expect.i64(i64 %142, i64 0)
  %144 = icmp ne i64 %143, 0
  br i1 %144, label %145, label %147

145:                                              ; preds = %137
  %146 = call i32 @H5open()
  br label %148

147:                                              ; preds = %137
  br label %148

148:                                              ; preds = %147, %145
  %149 = load i64, ptr @H5E_ERR_CLS_g, align 8, !tbaa !12
  %150 = load i8, ptr @H5_libinit_g, align 1, !tbaa !22, !range !24, !noundef !25
  %151 = trunc i8 %150 to i1
  br i1 %151, label %156, label %152

152:                                              ; preds = %148
  %153 = load i8, ptr @H5_libterm_g, align 1, !tbaa !22, !range !24, !noundef !25
  %154 = trunc i8 %153 to i1
  %155 = xor i1 %154, true
  br label %156

156:                                              ; preds = %152, %148
  %157 = phi i1 [ false, %148 ], [ %155, %152 ]
  %158 = xor i1 %157, true
  %159 = xor i1 %158, true
  %160 = zext i1 %159 to i32
  %161 = sext i32 %160 to i64
  %162 = call i64 @llvm.expect.i64(i64 %161, i64 0)
  %163 = icmp ne i64 %162, 0
  br i1 %163, label %164, label %166

164:                                              ; preds = %156
  %165 = call i32 @H5open()
  br label %167

166:                                              ; preds = %156
  br label %167

167:                                              ; preds = %166, %164
  %168 = load i64, ptr @H5E_INTERNAL_g, align 8, !tbaa !12
  %169 = load i8, ptr @H5_libinit_g, align 1, !tbaa !22, !range !24, !noundef !25
  %170 = trunc i8 %169 to i1
  br i1 %170, label %175, label %171

171:                                              ; preds = %167
  %172 = load i8, ptr @H5_libterm_g, align 1, !tbaa !22, !range !24, !noundef !25
  %173 = trunc i8 %172 to i1
  %174 = xor i1 %173, true
  br label %175

175:                                              ; preds = %171, %167
  %176 = phi i1 [ false, %167 ], [ %174, %171 ]
  %177 = xor i1 %176, true
  %178 = xor i1 %177, true
  %179 = zext i1 %178 to i32
  %180 = sext i32 %179 to i64
  %181 = call i64 @llvm.expect.i64(i64 %180, i64 0)
  %182 = icmp ne i64 %181, 0
  br i1 %182, label %183, label %185

183:                                              ; preds = %175
  %184 = call i32 @H5open()
  br label %186

185:                                              ; preds = %175
  br label %186

186:                                              ; preds = %185, %183
  %187 = load i64, ptr @H5E_BADVALUE_g, align 8, !tbaa !12
  %188 = call i32 (i64, ptr, ptr, i32, i64, i64, i64, ptr, ...) @H5Epush2(i64 noundef 0, ptr noundef @.str.1, ptr noundef @__func__.H5FD_multi_fapl_copy, i32 noundef 951, i64 noundef %149, i64 noundef %168, i64 noundef %187, ptr noundef @.str.25)
  store ptr null, ptr %2, align 8
  store i32 1, ptr %9, align 4
  br label %193

189:                                              ; No predecessors!
  br label %190

190:                                              ; preds = %189
  br label %191

191:                                              ; preds = %190, %86
  %192 = load ptr, ptr %5, align 8, !tbaa !41
  store ptr %192, ptr %2, align 8
  store i32 1, ptr %9, align 4
  br label %193

193:                                              ; preds = %191, %186
  call void @llvm.lifetime.end.p0(i64 4, ptr %6) #9
  call void @llvm.lifetime.end.p0(i64 8, ptr %5) #9
  call void @llvm.lifetime.end.p0(i64 8, ptr %4) #9
  %194 = load ptr, ptr %2, align 8
  ret ptr %194
}