; Function Attrs: nounwind uwtable
define internal noalias noundef ptr @H5FD_multi_fapl_copy(ptr noundef readonly captures(none) %0) #0 {
  %2 = tail call noalias dereferenceable_or_null(208) ptr @calloc(i64 noundef 1, i64 noundef 208) #17
  %3 = tail call i32 @H5Eclear2(i64 noundef 0) #15
  tail call void @llvm.memcpy.p0.p0.i64(ptr noundef nonnull align 8 dereferenceable(208) %2, ptr noundef nonnull align 8 dereferenceable(208) %0, i64 208, i1 false)
  %4 = getelementptr inbounds nuw i8, ptr %0, i64 32
  %5 = getelementptr inbounds nuw i8, ptr %2, i64 32
  %6 = getelementptr inbounds nuw i8, ptr %0, i64 88
  %7 = getelementptr inbounds nuw i8, ptr %2, i64 88
  br label %8

8:                                                ; preds = %1, %25
  %indvars.iv = phi i64 [ 0, %1 ], [ %indvars.iv.next, %25 ]
  %9 = getelementptr inbounds nuw [7 x i64], ptr %4, i64 0, i64 %indvars.iv
  %10 = load i64, ptr %9, align 8, !tbaa !23
  %11 = icmp sgt i64 %10, -1
  br i1 %11, label %12, label %18

12:                                               ; preds = %8
  %13 = tail call i32 @H5Iinc_ref(i64 noundef %10) #15
  %14 = icmp slt i32 %13, 0
  br i1 %14, label %.preheader, label %15

.preheader:                                       ; preds = %21, %12
  br label %26

15:                                               ; preds = %12
  %16 = load i64, ptr %9, align 8, !tbaa !23
  %17 = getelementptr inbounds nuw [7 x i64], ptr %5, i64 0, i64 %indvars.iv
  store i64 %16, ptr %17, align 8, !tbaa !23
  br label %18

18:                                               ; preds = %15, %8
  %19 = getelementptr inbounds nuw [7 x ptr], ptr %6, i64 0, i64 %indvars.iv
  %20 = load ptr, ptr %19, align 8, !tbaa !9
  %.not = icmp eq ptr %20, null
  br i1 %.not, label %25, label %21

21:                                               ; preds = %18
  %22 = tail call noalias ptr @strdup(ptr noundef nonnull %20) #15
  %23 = getelementptr inbounds nuw [7 x ptr], ptr %7, i64 0, i64 %indvars.iv
  store ptr %22, ptr %23, align 8, !tbaa !9
  %24 = icmp eq ptr %22, null
  br i1 %24, label %.preheader, label %25

25:                                               ; preds = %18, %21
  %indvars.iv.next = add nuw nsw i64 %indvars.iv, 1
  %exitcond = icmp eq i64 %indvars.iv.next, 7
  br i1 %exitcond, label %.critedge, label %8, !llvm.loop !36

26:                                               ; preds = %.preheader, %36
  %indvars.iv48 = phi i64 [ %indvars.iv.next49, %36 ], [ 0, %.preheader ]
  %27 = getelementptr inbounds nuw [7 x i64], ptr %5, i64 0, i64 %indvars.iv48
  %28 = load i64, ptr %27, align 8, !tbaa !23
  %29 = icmp sgt i64 %28, -1
  br i1 %29, label %30, label %32

30:                                               ; preds = %26
  %31 = tail call i32 @H5Idec_ref(i64 noundef %28) #15
  br label %32

32:                                               ; preds = %30, %26
  %33 = getelementptr inbounds nuw [7 x ptr], ptr %7, i64 0, i64 %indvars.iv48
  %34 = load ptr, ptr %33, align 8, !tbaa !9
  %.not44 = icmp eq ptr %34, null
  br i1 %.not44, label %36, label %35

35:                                               ; preds = %32
  tail call void @free(ptr noundef nonnull %34) #15
  br label %36

36:                                               ; preds = %32, %35
  %indvars.iv.next49 = add nuw nsw i64 %indvars.iv48, 1
  %exitcond51.not = icmp eq i64 %indvars.iv.next49, 7
  br i1 %exitcond51.not, label %37, label %26, !llvm.loop !37

37:                                               ; preds = %36
  tail call void @free(ptr noundef nonnull %2) #15
  %38 = load i8, ptr @H5_libinit_g, align 1, !tbaa !18, !range !20, !noundef !21
  %39 = trunc nuw i8 %38 to i1
  %40 = load i8, ptr @H5_libterm_g, align 1, !range !20
  %41 = trunc nuw i8 %40 to i1
  %42 = select i1 %39, i1 true, i1 %41
  br i1 %42, label %45, label %43, !prof !22

43:                                               ; preds = %37
  %44 = tail call i32 @H5open() #15
  %.pre = load i8, ptr @H5_libinit_g, align 1, !tbaa !18, !range !20
  %.pre52 = load i8, ptr @H5_libterm_g, align 1, !range !20
  br label %45

45:                                               ; preds = %37, %43
  %46 = phi i8 [ %40, %37 ], [ %.pre52, %43 ]
  %47 = phi i8 [ %38, %37 ], [ %.pre, %43 ]
  %48 = load i64, ptr @H5E_ERR_CLS_g, align 8, !tbaa !23
  %49 = trunc nuw i8 %47 to i1
  %50 = trunc nuw i8 %46 to i1
  %51 = select i1 %49, i1 true, i1 %50
  br i1 %51, label %54, label %52, !prof !22

52:                                               ; preds = %45
  %53 = tail call i32 @H5open() #15
  %.pre53 = load i8, ptr @H5_libinit_g, align 1, !tbaa !18, !range !20
  %.pre54 = load i8, ptr @H5_libterm_g, align 1, !range !20
  br label %54

54:                                               ; preds = %45, %52
  %55 = phi i8 [ %46, %45 ], [ %.pre54, %52 ]
  %56 = phi i8 [ %47, %45 ], [ %.pre53, %52 ]
  %57 = load i64, ptr @H5E_INTERNAL_g, align 8, !tbaa !23
  %58 = trunc nuw i8 %56 to i1
  %59 = trunc nuw i8 %55 to i1
  %60 = select i1 %58, i1 true, i1 %59
  br i1 %60, label %63, label %61, !prof !22

61:                                               ; preds = %54
  %62 = tail call i32 @H5open() #15
  br label %63

63:                                               ; preds = %54, %61
  %64 = load i64, ptr @H5E_BADVALUE_g, align 8, !tbaa !23
  %65 = tail call i32 (i64, ptr, ptr, i32, i64, i64, i64, ptr, ...) @H5Epush2(i64 noundef 0, ptr noundef nonnull @.str.1, ptr noundef nonnull @__func__.H5FD_multi_fapl_copy, i32 noundef 951, i64 noundef %48, i64 noundef %57, i64 noundef %64, ptr noundef nonnull @.str.25) #15
  br label %.critedge

.critedge:                                        ; preds = %25, %63
  %.038 = phi ptr [ null, %63 ], [ %2, %25 ]
  ret ptr %.038
}